; Function Attrs: nounwind uwtable
define zeroext i8 @l_Option_beqOption____x40_Init_Data_Option_Basic___hyg_160____at_Lean_Lsp_beqCompletionItem____x40_Lean_Data_Lsp_LanguageFeatures___hyg_2497____spec__5(ptr noundef %0, ptr noundef %1) local_unnamed_addr #0 {
  %3 = ptrtoint ptr %0 to i64
  %4 = and i64 %3, 1
  %.not.i = icmp eq i64 %4, 0
  br i1 %.not.i, label %8, label %5

5:                                                ; preds = %2
  %6 = lshr i64 %3, 1
  %7 = trunc i64 %6 to i32
  br label %lean_obj_tag.exit

8:                                                ; preds = %2
  %9 = getelementptr i8, ptr %0, i64 4
  %.val.i = load i32, ptr %9, align 4
  %10 = lshr i32 %.val.i, 24
  br label %lean_obj_tag.exit

lean_obj_tag.exit:                                ; preds = %5, %8
  %.0.i = phi i32 [ %7, %5 ], [ %10, %8 ]
  %11 = icmp eq i32 %.0.i, 0
  %12 = ptrtoint ptr %1 to i64
  %13 = and i64 %12, 1
  %.not.i11 = icmp eq i64 %13, 0
  br i1 %11, label %14, label %22

14:                                               ; preds = %lean_obj_tag.exit
  br i1 %.not.i11, label %18, label %15

15:                                               ; preds = %14
  %16 = lshr i64 %12, 1
  %17 = trunc i64 %16 to i32
  br label %lean_obj_tag.exit14

18:                                               ; preds = %14
  %19 = getelementptr i8, ptr %1, i64 4
  %.val.i13 = load i32, ptr %19, align 4
  %20 = lshr i32 %.val.i13, 24
  br label %lean_obj_tag.exit14

lean_obj_tag.exit14:                              ; preds = %15, %18
  %.0.i12 = phi i32 [ %17, %15 ], [ %20, %18 ]
  %21 = icmp eq i32 %.0.i12, 0
  %. = zext i1 %21 to i8
  br label %36

22:                                               ; preds = %lean_obj_tag.exit
  br i1 %.not.i11, label %26, label %23

23:                                               ; preds = %22
  %24 = lshr i64 %12, 1
  %25 = trunc i64 %24 to i32
  br label %lean_obj_tag.exit18

26:                                               ; preds = %22
  %27 = getelementptr i8, ptr %1, i64 4
  %.val.i17 = load i32, ptr %27, align 4
  %28 = lshr i32 %.val.i17, 24
  br label %lean_obj_tag.exit18

lean_obj_tag.exit18:                              ; preds = %23, %26
  %.0.i16 = phi i32 [ %25, %23 ], [ %28, %26 ]
  %29 = icmp eq i32 %.0.i16, 0
  br i1 %29, label %36, label %30

30:                                               ; preds = %lean_obj_tag.exit18
  %31 = getelementptr inbounds nuw i8, ptr %0, i64 8
  %32 = load ptr, ptr %31, align 8, !tbaa !4
  %33 = getelementptr inbounds nuw i8, ptr %1, i64 8
  %34 = load ptr, ptr %33, align 8, !tbaa !4
  %35 = tail call zeroext i8 @l___private_Lean_Data_Json_Basic_0__Lean_Json_beq_x27(ptr noundef %32, ptr noundef %34) #9
  br label %36

36:                                               ; preds = %lean_obj_tag.exit18, %lean_obj_tag.exit14, %30
  %.0 = phi i8 [ %35, %30 ], [ %., %lean_obj_tag.exit14 ], [ 0, %lean_obj_tag.exit18 ]
  ret i8 %.0
}